(lp0
(ilei
teachers
p1
(dp2
S'age'
p3
S'40'
p4
sS'password'
p5
S'123'
p6
sS'favour'
p7
S'shopping'
p8
sS'name'
p9
S'mike'
p10
sS'asset'
p11
I0
sba(ilei
teachers
p12
(dp13
g3
S'30'
p14
sg5
S'123'
p15
sg11
I0
sg9
S'lili'
p16
sg7
S'ppp'
p17
sba(ilei
teachers
p18
(dp19
g7
S'pig'
p20
sg3
S'50'
p21
sg5
S'123'
p22
sg9
S'linda'
p23
sg11
I0
sba.