(ilei
courses
p0
(dp1
S'fee'
p2
S'10'
p3
sS'name'
p4
S'music'
p5
sS'teacher'
p6
(ilei
teachers
p7
(dp8
S'age'
p9
S'40'
p10
sS'password'
p11
S'123'
p12
sS'asset'
p13
I0
sg4
S'kk'
p14
sS'favour'
p15
S'sp'
p16
sbsb.