(i__main__
courses
p0
(dp1
S'fee'
p2
S'10'
p3
sS'name'
p4
S'music'
p5
sS'teacher'
p6
(i__main__
teachers
p7
(dp8
S'age'
p9
S'40'
p10
sS'password'
p11
S'123'
p12
sS'asset'
p13
I0
sg4
S'mike'
p14
sS'favour'
p15
S'shopping'
p16
sbsb.