(ilei
students
p0
(dp1
S'name'
p2
S'leo'
p3
sS'age'
p4
S'19'
p5
sS'experience'
p6
(lp7
S'music'
p8
asS'course'
p9
(lp10
(ilei
courses
p11
(dp12
S'fee'
p13
S'10'
p14
sg2
g8
sS'teacher'
p15
(ilei
teachers
p16
(dp17
g4
S'40'
p18
sS'password'
p19
S'123'
p20
sS'asset'
p21
I5
sg2
S'kk'
p22
sS'favour'
p23
S'sp'
p24
sbsbasg21
I-10
sg19
S'123'
p25
sb.